; Function Attrs: nounwind uwtable
define internal ptr @sequence_editor(i32 %0) #0 {
  %2 = tail call ptr @git_sequence_editor() #10
  %.not.i = icmp eq ptr %2, null
  br i1 %.not.i, label %xstrdup_or_null.exit, label %3

3:                                                ; preds = %1
  %4 = tail call ptr @xstrdup(ptr noundef nonnull %2) #10
  br label %xstrdup_or_null.exit

xstrdup_or_null.exit:                             ; preds = %1, %3
  %5 = phi ptr [ %4, %3 ], [ null, %1 ]
  ret ptr %5
}